Certificate:
    Data:
        Version: 3 (0x2)
        Serial Number: 0 (0x0)
        Signature Algorithm: sha256WithRSAEncryption
        Issuer: C=CN, ST=JiangXi, L=NanChang, O=MediWay, OU=MediWay, CN=127.0.0.1/emailAddress=wanghuicai@mediway.cn
        Validity
            Not Before: Jul 30 02:25:04 2020 GMT
            Not After : Jul 30 02:25:04 2021 GMT
        Subject: C=CN, ST=JiangXi, O=MediWay, OU=MediWay, CN=127.0.0.1/emailAddress=wanghuicai@mediway.cn
        Subject Public Key Info:
            Public Key Algorithm: rsaEncryption
                RSA Public-Key: (2048 bit)
                Modulus:
                    00:d3:2f:ed:3d:40:fa:d4:db:49:8f:73:07:3b:bd:
                    98:48:4b:2a:f7:09:02:49:f3:8b:e5:a6:fd:9d:d8:
                    9c:e0:e2:d4:59:a0:ee:86:9e:28:0d:6f:2c:9a:e0:
                    bb:91:c0:62:01:67:12:f5:03:87:ee:63:de:5b:93:
                    2c:fb:8a:58:c8:1b:35:be:5a:c3:41:8a:df:53:0f:
                    91:e6:fc:3c:f3:64:7e:97:b7:93:03:53:70:ef:c1:
                    3d:f9:0a:68:c0:60:0e:81:7f:09:74:ed:6b:db:77:
                    11:9c:08:50:c5:2f:47:85:c6:07:2a:85:5a:a1:ea:
                    6b:7d:0b:4c:b3:1d:80:f5:5c:87:8b:f1:67:f9:69:
                    89:ab:75:be:b1:c7:ef:ed:b6:72:db:3d:94:e7:57:
                    e9:c5:c8:29:45:82:4f:e7:a7:1a:5e:1c:ed:51:57:
                    d4:67:b0:c0:6f:e1:e7:86:ca:82:6b:da:db:09:7e:
                    ee:03:cc:a9:81:2f:f2:1f:84:4c:06:f8:7d:ea:ce:
                    8c:e3:f5:87:e2:64:70:72:35:ba:8b:67:a7:89:ce:
                    f9:63:fc:f9:40:9f:ad:41:7f:25:cf:d7:f3:8e:a7:
                    b5:84:12:2f:aa:fb:fb:f8:f3:b4:ae:1c:c1:ee:47:
                    56:81:7d:86:ec:dc:4f:49:84:a2:e3:7f:9e:2f:f7:
                    fb:c9
                Exponent: 65537 (0x10001)
        X509v3 extensions:
            X509v3 Basic Constraints: 
                CA:FALSE
            X509v3 Key Usage: 
                Digital Signature, Non Repudiation, Key Encipherment
            X509v3 Subject Alternative Name: 
                IP Address:127.0.0.1, DNS:127.0.0.1, DNS:localhost, DNS:::1
    Signature Algorithm: sha256WithRSAEncryption
         70:c1:b9:57:90:18:29:82:78:f3:50:4e:ca:79:ce:25:c8:dc:
         56:cc:58:bd:85:1d:f3:b6:0f:ed:e2:ad:f1:fc:af:6d:40:31:
         68:47:a4:7c:20:3c:8c:21:ba:ff:a1:eb:c9:01:46:97:01:2c:
         73:c8:02:89:fd:f7:d2:4a:0c:93:ef:3d:bb:2c:a1:eb:5f:55:
         ac:70:59:02:e1:28:c7:ae:84:d8:33:5a:1a:2d:e1:66:b8:88:
         03:12:2d:ba:47:70:e7:61:40:46:1d:f3:c9:41:74:db:44:1c:
         02:de:d0:7a:8f:9b:7c:de:37:6e:94:6a:45:c0:40:28:60:23:
         c0:6f:68:8b:f4:23:06:c4:66:a3:4f:cb:fa:9e:0b:6d:b6:81:
         63:09:cb:2c:56:6a:17:3b:af:96:f0:3b:19:72:1e:d4:f9:7a:
         cf:e6:c9:4b:19:d9:2a:75:26:f4:3d:d6:59:df:71:f7:11:71:
         72:97:7b:67:37:b5:ad:22:6e:c6:29:02:88:f3:0f:4e:cb:39:
         11:da:9a:29:0d:8d:47:c9:ce:f3:c6:f9:b6:cb:27:50:d5:0f:
         05:b7:f0:dc:8e:e9:9f:97:6c:53:ff:b0:b0:41:2f:bd:2d:d5:
         f1:95:ea:a3:b8:a0:31:78:12:2c:c5:ef:32:35:2b:1f:7a:45:
         d6:34:23:93
-----BEGIN CERTIFICATE-----
MIIDzzCCAregAwIBAgIBADANBgkqhkiG9w0BAQsFADCBkDELMAkGA1UEBhMCQ04x
EDAOBgNVBAgMB0ppYW5nWGkxETAPBgNVBAcMCE5hbkNoYW5nMRAwDgYDVQQKDAdN
ZWRpV2F5MRAwDgYDVQQLDAdNZWRpV2F5MRIwEAYDVQQDDAkxMjcuMC4wLjExJDAi
BgkqhkiG9w0BCQEWFXdhbmdodWljYWlAbWVkaXdheS5jbjAeFw0yMDA3MzAwMjI1
MDRaFw0yMTA3MzAwMjI1MDRaMH0xCzAJBgNVBAYTAkNOMRAwDgYDVQQIDAdKaWFu
Z1hpMRAwDgYDVQQKDAdNZWRpV2F5MRAwDgYDVQQLDAdNZWRpV2F5MRIwEAYDVQQD
DAkxMjcuMC4wLjExJDAiBgkqhkiG9w0BCQEWFXdhbmdodWljYWlAbWVkaXdheS5j
bjCCASIwDQYJKoZIhvcNAQEBBQADggEPADCCAQoCggEBANMv7T1A+tTbSY9zBzu9
mEhLKvcJAknzi+Wm/Z3YnODi1Fmg7oaeKA1vLJrgu5HAYgFnEvUDh+5j3luTLPuK
WMgbNb5aw0GK31MPkeb8PPNkfpe3kwNTcO/BPfkKaMBgDoF/CXTta9t3EZwIUMUv
R4XGByqFWqHqa30LTLMdgPVch4vxZ/lpiat1vrHH7+22cts9lOdX6cXIKUWCT+en
Gl4c7VFX1GewwG/h54bKgmva2wl+7gPMqYEv8h+ETAb4ferOjOP1h+JkcHI1uotn
p4nO+WP8+UCfrUF/Jc/X846ntYQSL6r7+/jztK4cwe5HVoF9huzcT0mEouN/ni/3
+8kCAwEAAaNGMEQwCQYDVR0TBAIwADALBgNVHQ8EBAMCBeAwKgYDVR0RBCMwIYcE
fwAAAYIJMTI3LjAuMC4xgglsb2NhbGhvc3SCAzo6MTANBgkqhkiG9w0BAQsFAAOC
AQEAcMG5V5AYKYJ481BOynnOJcjcVsxYvYUd87YP7eKt8fyvbUAxaEekfCA8jCG6
/6HryQFGlwEsc8gCif330koMk+89uyyh619VrHBZAuEox66E2DNaGi3hZriIAxIt
ukdw52FARh3zyUF020QcAt7Qeo+bfN43bpRqRcBAKGAjwG9oi/QjBsRmo0/L+p4L
bbaBYwnLLFZqFzuvlvA7GXIe1Pl6z+bJSxnZKnUm9D3WWd9x9xFxcpd7Zze1rSJu
xikCiPMPTss5EdqaKQ2NR8nO88b5tssnUNUPBbfw3I7pn5dsU/+wsEEvvS3V8ZXq
o7igMXgSLMXvMjUrH3pF1jQjkw==
-----END CERTIFICATE-----
